target datalayout = "e-m:e-p270:32:32-p271:32:32-p272:64:64-i64:64-i128:128-f80:128-n8:16:32:64-S128"
target triple = "x86_64-pc-linux-gnu"

%struct._packet_info = type { ptr, ptr, i32, i32, %struct.nstime_t, %struct.nstime_t, %struct.nstime_t, i8, ptr, ptr, ptr, ptr, %struct._address, %struct._address, %struct._address, %struct._address, %struct._address, %struct._address, i32, ptr, i8, [3 x i8], %struct.anon, i32, i32, i32, i32, ptr, i8, ptr, ptr, i16, i16, i32, i32, i16, i32, i32, ptr, ptr, ptr, i8, i8, i16, i16, i16, i32, i16, i16, ptr, ptr, ptr, ptr, ptr, i32, i32 }
%struct.nstime_t = type { i64, i32 }
%struct._address = type { i32, i32, ptr, ptr }
%struct.anon = type { i8, [3 x i8] }
%struct.h224_opt_t = type { i32, ptr }

@hf_h224_q922_dlci_priority = internal global i32 0, align 4
@hf_h224_q922_ctl = internal global i32 0, align 4
@hf_h224_dta = internal global i32 0, align 4
@hf_h224_sta = internal global i32 0, align 4
@hf_h224_reserved = internal global i32 0, align 4
@ett_h224 = internal global i32 0, align 4
@.str.110 = private unnamed_addr constant [6 x i8] c"H.224\00", align 1
@proto_h224 = internal global i32 0, align 4
@dissect_h224.h224_flags = internal constant [6 x ptr] [ptr @hf_h224_es_b7, ptr @hf_h224_bs_b6, ptr @hf_h224_c1_b5, ptr @hf_h224_c2_b4, ptr @hf_h224_seg_b3b0, ptr null], align 16

; Function Attrs: null_pointer_is_valid sspstrong uwtable
define internal i32 @dissect_h224(ptr noundef %0, ptr noundef %1, ptr noundef %2, ptr noundef %3) #0 {
  %5 = alloca ptr, align 8
  %6 = alloca ptr, align 8
  %7 = alloca ptr, align 8
  %8 = alloca ptr, align 8
  %9 = alloca ptr, align 8
  %10 = alloca ptr, align 8
  %11 = alloca i32, align 4
  %12 = alloca i8, align 1
  %13 = alloca i32, align 4
  store ptr %0, ptr %5, align 8
  store ptr %1, ptr %6, align 8
  store ptr %2, ptr %7, align 8
  store ptr %3, ptr %8, align 8
  call void @llvm.lifetime.start.p0(i64 8, ptr %9) #3
  call void @llvm.lifetime.start.p0(i64 8, ptr %10) #3
  call void @llvm.lifetime.start.p0(i64 4, ptr %11) #3
  store i32 0, ptr %11, align 4
  call void @llvm.lifetime.start.p0(i64 1, ptr %12) #3
  %14 = load ptr, ptr %6, align 8
  %15 = getelementptr inbounds nuw %struct._packet_info, ptr %14, i32 0, i32 1
  %16 = load ptr, ptr %15, align 8
  call void @col_set_str(ptr noundef %16, i32 noundef 35, ptr noundef @.str.110)
  %17 = load ptr, ptr %7, align 8
  %18 = load i32, ptr @proto_h224, align 4
  %19 = load ptr, ptr %5, align 8
  %20 = load i32, ptr %11, align 4
  %21 = call ptr @proto_tree_add_item(ptr noundef %17, i32 noundef %18, ptr noundef %19, i32 noundef %20, i32 noundef -1, i32 noundef 0)
  store ptr %21, ptr %9, align 8
  %22 = load ptr, ptr %9, align 8
  %23 = load i32, ptr @ett_h224, align 4
  %24 = call ptr @proto_item_add_subtree(ptr noundef %22, i32 noundef %23)
  store ptr %24, ptr %10, align 8
  %25 = load ptr, ptr %10, align 8
  %26 = load i32, ptr @hf_h224_q922_dlci_priority, align 4
  %27 = load ptr, ptr %5, align 8
  %28 = load i32, ptr %11, align 4
  %29 = call ptr @proto_tree_add_item(ptr noundef %25, i32 noundef %26, ptr noundef %27, i32 noundef %28, i32 noundef 2, i32 noundef 0)
  %30 = load i32, ptr %11, align 4
  %31 = add i32 %30, 2
  store i32 %31, ptr %11, align 4
  %32 = load ptr, ptr %10, align 8
  %33 = load i32, ptr @hf_h224_q922_ctl, align 4
  %34 = load ptr, ptr %5, align 8
  %35 = load i32, ptr %11, align 4
  %36 = call ptr @proto_tree_add_item(ptr noundef %32, i32 noundef %33, ptr noundef %34, i32 noundef %35, i32 noundef 1, i32 noundef 0)
  %37 = load i32, ptr %11, align 4
  %38 = add i32 %37, 1
  store i32 %38, ptr %11, align 4
  %39 = load ptr, ptr %10, align 8
  %40 = load i32, ptr @hf_h224_dta, align 4
  %41 = load ptr, ptr %5, align 8
  %42 = load i32, ptr %11, align 4
  %43 = call ptr @proto_tree_add_item(ptr noundef %39, i32 noundef %40, ptr noundef %41, i32 noundef %42, i32 noundef 2, i32 noundef 0)
  %44 = load i32, ptr %11, align 4
  %45 = add i32 %44, 2
  store i32 %45, ptr %11, align 4
  %46 = load ptr, ptr %10, align 8
  %47 = load i32, ptr @hf_h224_sta, align 4
  %48 = load ptr, ptr %5, align 8
  %49 = load i32, ptr %11, align 4
  %50 = call ptr @proto_tree_add_item(ptr noundef %46, i32 noundef %47, ptr noundef %48, i32 noundef %49, i32 noundef 2, i32 noundef 0)
  %51 = load i32, ptr %11, align 4
  %52 = add i32 %51, 2
  store i32 %52, ptr %11, align 4
  %53 = load ptr, ptr %10, align 8
  %54 = load i32, ptr @hf_h224_reserved, align 4
  %55 = load ptr, ptr %5, align 8
  %56 = load i32, ptr %11, align 4
  %57 = call ptr @proto_tree_add_item(ptr noundef %53, i32 noundef %54, ptr noundef %55, i32 noundef %56, i32 noundef 1, i32 noundef 0)
  %58 = load ptr, ptr %5, align 8
  %59 = load i32, ptr %11, align 4
  %60 = call zeroext i8 @tvb_get_uint8(ptr noundef %58, i32 noundef %59)
  store i8 %60, ptr %12, align 1
  %61 = load ptr, ptr %5, align 8
  %62 = load ptr, ptr %10, align 8
  %63 = load i32, ptr %11, align 4
  %64 = load i8, ptr %12, align 1
  %65 = call i32 @dissect_h224_standard_clients_ids(ptr noundef %61, ptr noundef %62, i32 noundef %63, i8 noundef zeroext %64)
  store i32 %65, ptr %11, align 4
  %66 = load ptr, ptr %10, align 8
  %67 = load ptr, ptr %5, align 8
  %68 = load i32, ptr %11, align 4
  call void @proto_tree_add_bitmask_list(ptr noundef %66, ptr noundef %67, i32 noundef %68, i32 noundef 1, ptr noundef @dissect_h224.h224_flags, i32 noundef 0)
  %69 = load i32, ptr %11, align 4
  %70 = add i32 %69, 1
  store i32 %70, ptr %11, align 4
  call void @llvm.lifetime.start.p0(i64 4, ptr %13) #3
  store i32 -1, ptr %13, align 4
  br label %71

71:                                               ; preds = %98, %4
  %72 = load i32, ptr %13, align 4
  %73 = add i32 %72, 1
  store i32 %73, ptr %13, align 4
  %74 = sext i32 %73 to i64
  %75 = getelementptr [5 x %struct.h224_opt_t], ptr @h224opt, i64 0, i64 %74
  %76 = getelementptr inbounds nuw %struct.h224_opt_t, ptr %75, i32 0, i32 1
  %77 = load ptr, ptr %76, align 8
  %78 = icmp ne ptr %77, null
  br i1 %78, label %79, label %99

79:                                               ; preds = %71
  %80 = load i32, ptr %13, align 4
  %81 = sext i32 %80 to i64
  %82 = getelementptr [5 x %struct.h224_opt_t], ptr @h224opt, i64 0, i64 %81
  %83 = getelementptr inbounds nuw %struct.h224_opt_t, ptr %82, i32 0, i32 0
  %84 = load i32, ptr %83, align 16
  %85 = load i8, ptr %12, align 1
  %86 = zext i8 %85 to i32
  %87 = icmp eq i32 %84, %86
  br i1 %87, label %88, label %98

88:                                               ; preds = %79
  %89 = load i32, ptr %13, align 4
  %90 = sext i32 %89 to i64
  %91 = getelementptr [5 x %struct.h224_opt_t], ptr @h224opt, i64 0, i64 %90
  %92 = getelementptr inbounds nuw %struct.h224_opt_t, ptr %91, i32 0, i32 1
  %93 = load ptr, ptr %92, align 8
  %94 = load ptr, ptr %5, align 8
  %95 = load ptr, ptr %10, align 8
  %96 = load i32, ptr %11, align 4
  %97 = call i32 %93(ptr noundef %94, ptr noundef %95, i32 noundef %96)
  br label %99

98:                                               ; preds = %79
  br label %71, !llvm.loop !6

99:                                               ; preds = %88, %71
  %100 = load ptr, ptr %5, align 8
  %101 = call i32 @tvb_reported_length(ptr noundef %100)
  call void @llvm.lifetime.end.p0(i64 4, ptr %13) #3
  call void @llvm.lifetime.end.p0(i64 1, ptr %12) #3
  call void @llvm.lifetime.end.p0(i64 4, ptr %11) #3
  call void @llvm.lifetime.end.p0(i64 8, ptr %10) #3
  call void @llvm.lifetime.end.p0(i64 8, ptr %9) #3
  ret i32 %101
}