; Function Attrs: null_pointer_is_valid sspstrong uwtable
define internal i32 @dissect_h224(ptr noundef %0, ptr noundef readonly captures(none) %1, ptr noundef %2, ptr readnone captures(none) %3) #0 {
  %5 = getelementptr inbounds nuw i8, ptr %1, i64 8
  %6 = load ptr, ptr %5, align 8
  tail call void @col_set_str(ptr noundef %6, i32 noundef 35, ptr noundef nonnull @.str.110)
  %7 = load i32, ptr @proto_h224, align 4
  %8 = tail call ptr @proto_tree_add_item(ptr noundef %2, i32 noundef %7, ptr noundef %0, i32 noundef 0, i32 noundef -1, i32 noundef 0)
  %9 = load i32, ptr @ett_h224, align 4
  %10 = tail call ptr @proto_item_add_subtree(ptr noundef %8, i32 noundef %9)
  %11 = load i32, ptr @hf_h224_q922_dlci_priority, align 4
  %12 = tail call ptr @proto_tree_add_item(ptr noundef %10, i32 noundef %11, ptr noundef %0, i32 noundef 0, i32 noundef 2, i32 noundef 0)
  %13 = load i32, ptr @hf_h224_q922_ctl, align 4
  %14 = tail call ptr @proto_tree_add_item(ptr noundef %10, i32 noundef %13, ptr noundef %0, i32 noundef 2, i32 noundef 1, i32 noundef 0)
  %15 = load i32, ptr @hf_h224_dta, align 4
  %16 = tail call ptr @proto_tree_add_item(ptr noundef %10, i32 noundef %15, ptr noundef %0, i32 noundef 3, i32 noundef 2, i32 noundef 0)
  %17 = load i32, ptr @hf_h224_sta, align 4
  %18 = tail call ptr @proto_tree_add_item(ptr noundef %10, i32 noundef %17, ptr noundef %0, i32 noundef 5, i32 noundef 2, i32 noundef 0)
  %19 = load i32, ptr @hf_h224_reserved, align 4
  %20 = tail call ptr @proto_tree_add_item(ptr noundef %10, i32 noundef %19, ptr noundef %0, i32 noundef 7, i32 noundef 1, i32 noundef 0)
  %21 = tail call zeroext i8 @tvb_get_uint8(ptr noundef %0, i32 noundef 7)
  %22 = tail call fastcc i32 @dissect_h224_standard_clients_ids(ptr noundef %0, ptr noundef %10, i32 noundef 7, i8 noundef zeroext %21)
  tail call void @proto_tree_add_bitmask_list(ptr noundef %10, ptr noundef %0, i32 noundef %22, i32 noundef 1, ptr noundef nonnull @dissect_h224.h224_flags, i32 noundef 0)
  %23 = add i32 %22, 1
  %24 = zext i8 %21 to i32
  br label %25

25:                                               ; preds = %26, %4
  %indvars.iv = phi i64 [ %indvars.iv.next, %26 ], [ -1, %4 ]
  %exitcond = icmp eq i64 %indvars.iv, 3
  br i1 %exitcond, label %.loopexit, label %26

26:                                               ; preds = %25
  %indvars.iv.next = add nsw i64 %indvars.iv, 1
  %27 = getelementptr [5 x %struct.h224_opt_t], ptr @h224opt, i64 0, i64 %indvars.iv.next
  %28 = load i32, ptr %27, align 16
  %29 = icmp eq i32 %28, %24
  br i1 %29, label %30, label %25, !llvm.loop !6

30:                                               ; preds = %26
  %31 = getelementptr inbounds nuw i8, ptr %27, i64 8
  %32 = load ptr, ptr %31, align 8
  %33 = tail call i32 %32(ptr noundef %0, ptr noundef %10, i32 noundef %23)
  br label %.loopexit

.loopexit:                                        ; preds = %25, %30
  %34 = tail call i32 @tvb_reported_length(ptr noundef %0)
  ret i32 %34
}